(dp0
S'result'
p1
(dp2
S'last'
p3
I1468435500
sS'XETHZEUR'
p4
(lp5
(lp6
I1468220100
aF9.65011
aF9.65193
aF9.65
aF9.65193
aF9.65033
aF181.7009
aI6
aa(lp7
I1468220400
aF9.65193
aF9.683
aF9.64271
aF9.67949
aF9.64752
aF144.31525021
aI10
aa(lp8
I1468220700
aF9.699
aF9.6995
aF9.66353
aF9.6935
aF9.68348
aF104.26457987
aI7
aa(lp9
I1468221000
aF9.692
aF9.692
aF9.65
aF9.6885
aF9.68208
aF49.64303039
aI4
aa(lp10
I1468221300
aF9.63807
aF9.6895
aF9.63807
aF9.6785
aF9.68446
aF124.8269386
aI5
aa(lp11
I1468221600
aF9.679
aF9.679
aF9.679
aF9.679
aF9.679
aF5.74381661
aI3
aa(lp12
I1468221900
aF9.675
aF9.6795
aF9.66
aF9.6795
aF9.67314
aF205.34482739
aI8
aa(lp13
I1468222200
aF9.69
aF9.69
aF9.69
aF9.69
aF9.69
aF34.06340596
aI2
aa(lp14
I1468222500
aF9.69935
aF9.7
aF9.69
aF9.69
aF9.69575
aF424.47069404
aI7
aa(lp15
I1468222800
aF9.69
aF9.7351
aF9.62106
aF9.7101
aF9.67573
aF675.97154559
aI15
aa(lp16
I1468223100
aF9.65274
aF9.65274
aF9.62201
aF9.62201
aF9.63278
aF8.0
aI2
aa(lp17
I1468223400
aF9.67651
aF9.7
aF9.673
aF9.7
aF9.67564
aF1110.79
aI11
aa(lp18
I1468223700
aF9.7
aF9.7
aF9.65969
aF9.65969
aF9.69529
aF105.07616
aI8
aa(lp19
I1468224000
aF9.72999
aF9.72999
aF9.72999
aF9.72999
aF9.72999
aF20.88491
aI1
aa(lp20
I1468224300
aF9.72999
aF9.72999
aF9.60001
aF9.65449
aF9.62314
aF607.63219844
aI16
aa(lp21
I1468224600
aF9.66487
aF9.6691
aF9.66487
aF9.6691
aF9.66754
aF21.99092307
aI5
aa(lp22
I1468224900
aF9.66506
aF9.66506
aF9.62201
aF9.62201
aF9.62494
aF205.52044674
aI4
aa(lp23
I1468225200
aF9.6636
aF9.6636
aF9.6636
aF9.6636
aF9.6636
aF52.74055217
aI3
aa(lp24
I1468225500
aF9.62
aF9.66257
aF9.6
aF9.6
aF9.62983
aF288.00801386
aI7
aa(lp25
I1468225800
aF9.629
aF9.629
aF9.629
aF9.629
aF9.629
aF1.374653
aI1
aa(lp26
I1468226100
aF9.5772
aF9.5772
aF9.55
aF9.55
aF9.55523
aF490.0
aI8
aa(lp27
I1468226400
aF9.55
aF9.55571
aF9.55
aF9.55
aF9.55104
aF258.24139459
aI8
aa(lp28
I1468226700
aF9.55
aF9.55
aF9.55
aF9.55
aF9.55
aF77.89055445
aI5
aa(lp29
I1468227000
aF9.55
aF9.55
aF9.55
aF9.55
aF9.55
aF27.34400699
aI2
aa(lp30
I1468227300
aF9.542
aF9.542
aF9.5348
aF9.5348
aF9.5398
aF2700.0
aI13
aa(lp31
I1468227600
aF9.5348
aF9.55
aF9.5348
aF9.55
aF9.5497
aF102.00234
aI4
aa(lp32
I1468227900
aF9.55
aF9.55184
aF9.5359
aF9.55
aF9.54467
aF2991.98440397
aI18
aa(lp33
I1468228200
aF9.5685
aF9.58
aF9.5685
aF9.58
aF9.57661
aF141.77371449
aI2
aa(lp34
I1468228500
aF9.58
aF9.58
aF9.58
aF9.58
aF9.58
aF1050.0
aI11
aa(lp35
I1468228800
aF9.58
aF9.58
aF9.57
aF9.57
aF9.57077
aF90.10000342
aI2
aa(lp36
I1468229100
aF9.58
aF9.58
aF9.5685
aF9.58
aF9.57317
aF1.68407321
aI3
aa(lp37
I1468229400
aF9.575
aF9.575
aF9.5685
aF9.5685
aF9.5685
aF24.02
aI2
aa(lp38
I1468229700
aF9.5685
aF9.5685
aF9.491
aF9.55
aF9.50658
aF2718.84026046
aI35
aa(lp39
I1468230000
aF9.516
aF9.5265
aF9.49
aF9.4999
aF9.49889
aF3134.56843431
aI32
aa(lp40
I1468230300
aF9.4999
aF9.5
aF9.492
aF9.5
aF9.49903
aF1100.56572818
aI20
aa(lp41
I1468230600
aF9.5
aF9.519
aF9.5
aF9.519
aF9.50102
aF371.5112
aI4
aa(lp42
I1468230900
aF9.519
aF9.519
aF9.519
aF9.519
aF0.0
aF0.0
aI0
aa(lp43
I1468231200
aF9.50334
aF9.50334
aF9.49
aF9.49
aF9.49464
aF1070.0
aI8
aa(lp44
I1468231500
aF9.49
aF9.49
aF9.49
aF9.49
aF9.49
aF38.38371
aI1
aa(lp45
I1468231800
aF9.49
aF9.55
aF9.49
aF9.509
aF9.52807
aF133.34665267
aI7
aa(lp46
I1468232100
aF9.53659
aF9.5398
aF9.53659
aF9.53659
aF9.53737
aF41.70802848
aI3
aa(lp47
I1468232400
aF9.509
aF9.509
aF9.509
aF9.509
aF9.509
aF9.04274
aI1
aa(lp48
I1468232700
aF9.493
aF9.493
aF9.493
aF9.493
aF9.493
aF11.79277137
aI5
aa(lp49
I1468233000
aF9.50145
aF9.50145
aF9.49
aF9.49
aF9.49056
aF90.0
aI5
aa(lp50
I1468233300
aF9.5011
aF9.5279
aF9.4905
aF9.4905
aF9.52001
aF119.20951
aI5
aa(lp51
I1468233600
aF9.49
aF9.491
aF9.4236
aF9.45
aF9.47602
aF2756.90414487
aI36
aa(lp52
I1468233900
aF9.45
aF9.49
aF9.45
aF9.47981
aF9.45112
aF337.30324724
aI6
aa(lp53
I1468234200
aF9.49
aF9.49
aF9.4895
aF9.49
aF9.48986
aF294.2689815
aI4
aa(lp54
I1468234500
aF9.49
aF9.49
aF9.45103
aF9.4857
aF9.45355
aF65.52232
aI5
aa(lp55
I1468234800
aF9.4857
aF9.4857
aF9.4735
aF9.4735
aF9.4735
aF96.71283052
aI3
aa(lp56
I1468235100
aF9.4735
aF9.4735
aF9.44026
aF9.44026
aF9.45486
aF62.92516
aI5
aa(lp57
I1468235400
aF9.43069
aF9.43069
aF9.35
aF9.35
aF9.36657
aF2857.34322
aI30
aa(lp58
I1468235700
aF9.3685
aF9.369
aF9.34
aF9.34
aF9.35242
aF730.37739868
aI8
aa(lp59
I1468236000
aF9.339
aF9.339
aF9.3
aF9.305
aF9.30096
aF2188.32836227
aI30
aa(lp60
I1468236300
aF9.305
aF9.3246
aF9.3
aF9.3
aF9.30285
aF2274.24944146
aI42
aa(lp61
I1468236600
aF9.3216
aF9.3216
aF9.262
aF9.263
aF9.29067
aF953.94878488
aI36
aa(lp62
I1468236900
aF9.29007
aF9.29007
aF9.26
aF9.26
aF9.27199
aF239.24517757
aI13
aa(lp63
I1468237200
aF9.283
aF9.2865
aF9.26
aF9.26
aF9.27434
aF811.50085
aI20
aa(lp64
I1468237500
aF9.26
aF9.32799
aF9.26
aF9.32799
aF9.27872
aF246.83289608
aI11
aa(lp65
I1468237800
aF9.34
aF9.45
aF9.29451
aF9.45
aF9.42842
aF1107.23565068
aI16
aa(lp66
I1468238100
aF9.45
aF9.489
aF9.4018
aF9.489
aF9.47428
aF2764.95459728
aI71
aa(lp67
I1468238400
aF9.489
aF9.5877
aF9.42901
aF9.42901
aF9.51886
aF1173.50944854
aI33
aa(lp68
I1468238700
aF9.43
aF9.4396
aF9.39468
aF9.39468
aF9.39918
aF981.79314463
aI18
aa(lp69
I1468239000
aF9.39468
aF9.39469
aF9.26103
aF9.3523
aF9.35833
aF1743.4369866
aI32
aa(lp70
I1468239300
aF9.36134
aF9.43578
aF9.36134
aF9.42
aF9.41248
aF612.578332
aI20
aa(lp71
I1468239600
aF9.42
aF9.4241
aF9.42
aF9.42
aF9.42026
aF108.15958117
aI4
aa(lp72
I1468239900
aF9.429
aF9.429
aF9.42
aF9.42
aF9.42056
aF409.67976094
aI8
aa(lp73
I1468240200
aF9.425
aF9.425
aF9.42
aF9.42
aF9.42351
aF314.94131283
aI6
aa(lp74
I1468240500
aF9.425
aF9.464
aF9.425
aF9.464
aF9.45369
aF160.89403568
aI6
aa(lp75
I1468240800
aF9.42451
aF9.464
aF9.42451
aF9.464
aF9.45074
aF7.52532
aI2
aa(lp76
I1468241100
aF9.48879
aF9.4971
aF9.48879
aF9.4888
aF9.48945
aF317.49492294
aI6
aa(lp77
I1468241400
aF9.4888
aF9.49044
aF9.4888
aF9.49044
aF9.49038
aF0.1896
aI2
aa(lp78
I1468241700
aF9.49044
aF9.49044
aF9.49044
aF9.49044
aF0.0
aF0.0
aI0
aa(lp79
I1468242000
aF9.49143
aF9.49143
aF9.47
aF9.486
aF9.48796
aF40.11375381
aI4
aa(lp80
I1468242300
aF9.486
aF9.486
aF9.485
aF9.486
aF9.48508
aF32.78660531
aI2
aa(lp81
I1468242600
aF9.48299
aF9.48299
aF9.45
aF9.45
aF9.4615
aF660.39940269
aI14
aa(lp82
I1468242900
aF9.421
aF9.421
aF9.421
aF9.421
aF9.421
aF63.23271414
aI2
aa(lp83
I1468243200
aF9.41
aF9.41
aF9.37703
aF9.37703
aF9.37811
aF421.97213
aI10
aa(lp84
I1468243500
aF9.3775
aF9.3775
aF9.3775
aF9.3775
aF9.3775
aF0.72947
aI1
aa(lp85
I1468243800
aF9.3775
aF9.38553
aF9.3775
aF9.38553
aF9.38553
aF0.12741
aI1
aa(lp86
I1468244100
aF9.38553
aF9.4855
aF9.38553
aF9.46559
aF9.47284
aF26.56417504
aI8
aa(lp87
I1468244400
aF9.46559
aF9.46559
aF9.4217
aF9.4217
aF9.4217
aF2.1
aI2
aa(lp88
I1468244700
aF9.45
aF9.45
aF9.45
aF9.45
aF9.45
aF30.0
aI5
aa(lp89
I1468245000
aF9.45
aF9.45
aF9.43226
aF9.43226
aF9.43254
aF4.2
aI3
aa(lp90
I1468245300
aF9.43226
aF9.5265
aF9.43226
aF9.47115
aF9.49535
aF720.69044
aI20
aa(lp91
I1468245600
aF9.4502
aF9.46456
aF9.4502
aF9.46456
aF9.45395
aF29.9734
aI4
aa(lp92
I1468245900
aF9.4775
aF9.54799
aF9.4775
aF9.54799
aF9.53937
aF281.54472987
aI8
aa(lp93
I1468246200
aF9.54799
aF9.54799
aF9.47251
aF9.47251
aF9.47251
aF0.03
aI1
aa(lp94
I1468246500
aF9.51
aF9.53475
aF9.5
aF9.5
aF9.50186
aF89.55670549
aI9
aa(lp95
I1468246800
aF9.45196
aF9.5
aF9.45196
aF9.5
aF9.49816
aF140.8363
aI5
aa(lp96
I1468247100
aF9.5
aF9.5
aF9.5
aF9.5
aF9.5
aF162.3934
aI2
aa(lp97
I1468247400
aF9.5
aF9.5
aF9.47763
aF9.486
aF9.48836
aF88.67864289
aI5
aa(lp98
I1468247700
aF9.5
aF9.5
aF9.5
aF9.5
aF9.5
aF230.18686558
aI5
aa(lp99
I1468248000
aF9.5
aF9.57
aF9.49621
aF9.51002
aF9.52201
aF1407.35236841
aI45
aa(lp100
I1468248300
aF9.51002
aF9.57
aF9.51002
aF9.57
aF9.56996
aF56.3173
aI4
aa(lp101
I1468248600
aF9.57
aF9.75998
aF9.57
aF9.6455
aF9.71431
aF4611.59997188
aI33
aa(lp102
I1468248900
aF9.62325
aF9.75897
aF9.59
aF9.61379
aF9.73698
aF2077.57639462
aI29
aa(lp103
I1468249200
aF9.61379
aF9.65492
aF9.61379
aF9.64441
aF9.63087
aF217.585
aI13
aa(lp104
I1468249500
aF9.64441
aF9.65493
aF9.643
aF9.65493
aF9.64498
aF120.0
aI3
aa(lp105
I1468249800
aF9.65493
aF9.65493
aF9.60271
aF9.60271
aF9.64412
aF187.27858865
aI7
aa(lp106
I1468250100
aF9.60139
aF9.60623
aF9.60139
aF9.60623
aF9.60504
aF0.409
aI2
aa(lp107
I1468250400
aF9.60623
aF9.60623
aF9.53
aF9.5438
aF9.5695
aF777.97246319
aI30
aa(lp108
I1468250700
aF9.50088
aF9.50088
aF9.43602
aF9.43602
aF9.47381
aF394.83340223
aI17
aa(lp109
I1468251000
aF9.43603
aF9.44653
aF9.43
aF9.44519
aF9.43586
aF1212.23634951
aI25
aa(lp110
I1468251300
aF9.44519
aF9.44519
aF9.37
aF9.41407
aF9.39952
aF375.9041
aI24
aa(lp111
I1468251600
aF9.41407
aF9.48204
aF9.41407
aF9.48204
aF9.47553
aF58.97219446
aI8
aa(lp112
I1468251900
aF9.48204
aF9.48204
aF9.48204
aF9.48204
aF9.48204
aF2.63656343
aI1
aa(lp113
I1468252200
aF9.48204
aF9.49617
aF9.48204
aF9.4869
aF9.4871
aF10.61693211
aI4
aa(lp114
I1468252500
aF9.4869
aF9.4869
aF9.4801
aF9.4801
aF9.4801
aF80.0
aI1
aa(lp115
I1468252800
aF9.4801
aF9.4801
aF9.48009
aF9.48009
aF9.48009
aF10.1004821
aI4
aa(lp116
I1468253100
aF9.4867
aF9.5274
aF9.43421
aF9.43421
aF9.48369
aF955.79733409
aI17
aa(lp117
I1468253400
aF9.48
aF9.5264
aF9.42566
aF9.42566
aF9.47399
aF60.69961717
aI11
aa(lp118
I1468253700
aF9.42566
aF9.4936
aF9.42566
aF9.4936
aF9.46938
aF5.0915
aI4
aa(lp119
I1468254000
aF9.4936
aF9.4936
aF9.4754
aF9.4754
aF9.4754
aF2.1
aI2
aa(lp120
I1468254300
aF9.4754
aF9.4936
aF9.41573
aF9.49308
aF9.41806
aF102.60876379
aI5
aa(lp121
I1468254600
aF9.49308
aF9.49308
aF9.41409
aF9.44309
aF9.41489
aF89.55251611
aI2
aa(lp122
I1468254900
aF9.44309
aF9.44309
aF9.4401
aF9.4401
aF9.4401
aF10.5931
aI1
aa(lp123
I1468255200
aF9.4401
aF9.4531
aF9.4401
aF9.4531
aF9.4531
aF16.7665
aI2
aa(lp124
I1468255500
aF9.4743
aF9.49407
aF9.4743
aF9.48588
aF9.48146
aF387.65427656
aI10
aa(lp125
I1468255800
aF9.48588
aF9.5
aF9.48588
aF9.5
aF9.49298
aF71.3942
aI4
aa(lp126
I1468256100
aF9.5
aF9.5
aF9.46217
aF9.46217
aF9.46217
aF2.00561
aI1
aa(lp127
I1468256400
aF9.46217
aF9.46217
aF9.46217
aF9.46217
aF0.0
aF0.0
aI0
aa(lp128
I1468256700
aF9.46217
aF9.46217
aF9.4531
aF9.4531
aF9.4531
aF1.01938
aI1
aa(lp129
I1468257000
aF9.4531
aF9.49998
aF9.4531
aF9.49998
aF9.49998
aF1.0
aI1
aa(lp130
I1468257300
aF9.49319
aF9.49319
aF9.48917
aF9.48919
aF9.48928
aF279.15468831
aI4
aa(lp131
I1468257600
aF9.48919
aF9.49947
aF9.48919
aF9.49945
aF9.49946
aF0.87
aI2
aa(lp132
I1468257900
aF9.49945
aF9.49945
aF9.46077
aF9.46077
aF9.48823
aF16.1162
aI3
aa(lp133
I1468258200
aF9.46077
aF9.46077
aF9.4401
aF9.4401
aF9.44623
aF200.0
aI8
aa(lp134
I1468258500
aF9.4401
aF9.45527
aF9.4401
aF9.4411
aF9.44425
aF9.42188
aI3
aa(lp135
I1468258800
aF9.4411
aF9.478
aF9.4411
aF9.45315
aF9.4774
aF101.60775518
aI7
aa(lp136
I1468259100
aF9.45315
aF9.49798
aF9.45315
aF9.49798
aF9.49634
aF43.32670775
aI4
aa(lp137
I1468259400
aF9.49798
aF9.49798
aF9.49798
aF9.49798
aF0.0
aF0.0
aI0
aa(lp138
I1468259700
aF9.49798
aF9.49798
aF9.44851
aF9.44851
aF9.44851
aF0.66681
aI1
aa(lp139
I1468260000
aF9.44851
aF9.44851
aF9.44851
aF9.44851
aF0.0
aF0.0
aI0
aa(lp140
I1468260300
aF9.44851
aF9.44851
aF9.44851
aF9.44851
aF0.0
aF0.0
aI0
aa(lp141
I1468260600
aF9.44851
aF9.44851
aF9.43792
aF9.43792
aF9.43885
aF4.99866061
aI3
aa(lp142
I1468260900
aF9.43792
aF9.43792
aF9.42346
aF9.42346
aF9.42346
aF4.6625
aI1
aa(lp143
I1468261200
aF9.42346
aF9.42346
aF9.421
aF9.421
aF9.42136
aF102.81898072
aI5
aa(lp144
I1468261500
aF9.421
aF9.4326
aF9.421
aF9.4326
aF9.43206
aF159.03198821
aI3
aa(lp145
I1468261800
aF9.4326
aF9.4326
aF9.42
aF9.42
aF9.42099
aF148.51851928
aI2
aa(lp146
I1468262100
aF9.42
aF9.4291
aF9.42
aF9.4291
aF9.4291
aF71.432
aI1
aa(lp147
I1468262400
aF9.4291
aF9.468
aF9.4291
aF9.468
aF9.468
aF22.95
aI1
aa(lp148
I1468262700
aF9.4642
aF9.49898
aF9.4642
aF9.49898
aF9.46813
aF84.0
aI6
aa(lp149
I1468263000
aF9.4985
aF9.4985
aF9.45111
aF9.45111
aF9.45336
aF105.0
aI2
aa(lp150
I1468263300
aF9.45111
aF9.52
aF9.45111
aF9.52
aF9.49832
aF141.9478
aI9
aa(lp151
I1468263600
aF9.52
aF9.54399
aF9.5
aF9.5
aF9.52469
aF42.08807744
aI8
aa(lp152
I1468263900
aF9.5
aF9.5
aF9.5
aF9.5
aF9.5
aF2.11
aI1
aa(lp153
I1468264200
aF9.5
aF9.54349
aF9.5
aF9.5335
aF9.5425
aF60.90179681
aI3
aa(lp154
I1468264500
aF9.5335
aF9.5335
aF9.5335
aF9.5335
aF0.0
aF0.0
aI0
aa(lp155
I1468264800
aF9.5335
aF9.549
aF9.5195
aF9.5195
aF9.53084
aF26.35809955
aI5
aa(lp156
I1468265100
aF9.5195
aF9.5195
aF9.5195
aF9.5195
aF0.0
aF0.0
aI0
aa(lp157
I1468265400
aF9.5195
aF9.52
aF9.5195
aF9.52
aF9.52
aF35.0
aI1
aa(lp158
I1468265700
aF9.52
aF9.52
aF9.52
aF9.52
aF9.52
aF25.0
aI1
aa(lp159
I1468266000
aF9.52
aF9.52
aF9.5195
aF9.5195
aF9.5195
aF3.62142324
aI1
aa(lp160
I1468266300
aF9.5195
aF9.52
aF9.5195
aF9.52
aF9.52
aF31.89
aI1
aa(lp161
I1468266600
aF9.52
aF9.5236
aF9.52
aF9.5236
aF9.5236
aF189.00415804
aI3
aa(lp162
I1468266900
aF9.5236
aF9.5236
aF9.5
aF9.5
aF9.50022
aF1.01676178
aI2
aa(lp163
I1468267200
aF9.5
aF9.51654
aF9.5
aF9.51654
aF9.50357
aF46.3094542
aI2
aa(lp164
I1468267500
aF9.51654
aF9.52644
aF9.5
aF9.5
aF9.51509
aF211.66331766
aI13
aa(lp165
I1468267800
aF9.5
aF9.5
aF9.49
aF9.49
aF9.49
aF22.7315
aI3
aa(lp166
I1468268100
aF9.4918
aF9.52202
aF9.4918
aF9.52202
aF9.51105
aF126.05030651
aI3
aa(lp167
I1468268400
aF9.52202
aF9.52202
aF9.52202
aF9.52202
aF0.0
aF0.0
aI0
aa(lp168
I1468268700
aF9.52202
aF9.53899
aF9.5
aF9.5
aF9.50162
aF439.58173789
aI6
aa(lp169
I1468269000
aF9.5
aF9.5
aF9.48328
aF9.48328
aF9.48828
aF11.1375
aI3
aa(lp170
I1468269300
aF9.471
aF9.48228
aF9.44701
aF9.48228
aF9.45447
aF87.44120226
aI5
aa(lp171
I1468269600
aF9.48228
aF9.48228
aF9.48228
aF9.48228
aF9.48228
aF35.99144695
aI1
aa(lp172
I1468269900
aF9.48228
aF9.48228
aF9.48228
aF9.48228
aF0.0
aF0.0
aI0
aa(lp173
I1468270200
aF9.50531
aF9.52887
aF9.50531
aF9.52887
aF9.51535
aF8.033
aI6
aa(lp174
I1468270500
aF9.54
aF9.6
aF9.54
aF9.59998
aF9.58256
aF399.95592187
aI24
aa(lp175
I1468270800
aF9.59998
aF9.61756
aF9.59161
aF9.59161
aF9.59504
aF57.11468272
aI4
aa(lp176
I1468271100
aF9.59161
aF9.7
aF9.59161
aF9.66047
aF9.68171
aF368.60809388
aI19
aa(lp177
I1468271400
aF9.66047
aF9.66303
aF9.5954
aF9.66202
aF9.65252
aF36.4508331
aI3
aa(lp178
I1468271700
aF9.66202
aF9.66202
aF9.65794
aF9.65898
aF9.65869
aF251.74901315
aI6
aa(lp179
I1468272000
aF9.65898
aF9.661
aF9.65898
aF9.661
aF9.66074
aF136.0
aI5
aa(lp180
I1468272300
aF9.6525
aF9.6525
aF9.6525
aF9.6525
aF9.6525
aF50.0
aI1
aa(lp181
I1468272600
aF9.57771
aF9.6345
aF9.57771
aF9.57931
aF9.61475
aF30.86548033
aI5
aa(lp182
I1468272900
aF9.57931
aF9.60202
aF9.57331
aF9.60202
aF9.57361
aF1.0766287
aI2
aa(lp183
I1468273200
aF9.60202
aF9.60202
aF9.60202
aF9.60202
aF0.0
aF0.0
aI0
aa(lp184
I1468273500
aF9.60202
aF9.60202
aF9.60202
aF9.60202
aF0.0
aF0.0
aI0
aa(lp185
I1468273800
aF9.60202
aF9.60202
aF9.60202
aF9.60202
aF0.0
aF0.0
aI0
aa(lp186
I1468274100
aF9.60202
aF9.60202
aF9.58
aF9.58
aF9.58
aF115.335658
aI2
aa(lp187
I1468274400
aF9.58
aF9.58
aF9.551
aF9.551
aF9.57902
aF408.49821573
aI13
aa(lp188
I1468274700
aF9.52488
aF9.55345
aF9.47642
aF9.4818
aF9.49178
aF249.38928769
aI11
aa(lp189
I1468275000
aF9.47602
aF9.49449
aF9.476
aF9.476
aF9.47724
aF989.92099416
aI17
aa(lp190
I1468275300
aF9.476
aF9.476
aF9.476
aF9.476
aF9.476
aF3.762283
aI1
aa(lp191
I1468275600
aF9.476
aF9.47702
aF9.476
aF9.47702
aF9.47701
aF484.27773646
aI2
aa(lp192
I1468275900
aF9.47702
aF9.50401
aF9.47702
aF9.50194
aF9.50203
aF379.44727
aI3
aa(lp193
I1468276200
aF9.52321
aF9.53273
aF9.52321
aF9.53273
aF9.52885
aF2.454832
aI2
aa(lp194
I1468276500
aF9.53273
aF9.53273
aF9.53273
aF9.53273
aF0.0
aF0.0
aI0
aa(lp195
I1468276800
aF9.53273
aF9.5462
aF9.53273
aF9.5452
aF9.54533
aF146.38047002
aI4
aa(lp196
I1468277100
aF9.5452
aF9.5452
aF9.5
aF9.5
aF9.50343
aF5.93
aI2
aa(lp197
I1468277400
aF9.54824
aF9.55799
aF9.54824
aF9.55799
aF9.55334
aF2.1
aI2
aa(lp198
I1468277700
aF9.55143
aF9.55143
aF9.55143
aF9.55143
aF9.55143
aF2.1
aI2
aa(lp199
I1468278000
aF9.55143
aF9.55143
aF9.55143
aF9.55143
aF0.0
aF0.0
aI0
aa(lp200
I1468278300
aF9.55143
aF9.55143
aF9.55143
aF9.55143
aF0.0
aF0.0
aI0
aa(lp201
I1468278600
aF9.55143
aF9.55143
aF9.54408
aF9.5481
aF9.54808
aF12.51069854
aI2
aa(lp202
I1468278900
aF9.5481
aF9.5481
aF9.53635
aF9.53635
aF9.53635
aF2.1
aI2
aa(lp203
I1468279200
aF9.53635
aF9.53635
aF9.53635
aF9.53635
aF0.0
aF0.0
aI0
aa(lp204
I1468279500
aF9.53635
aF9.549
aF9.53635
aF9.549
aF9.549
aF10.0
aI1
aa(lp205
I1468279800
aF9.549
aF9.549
aF9.52793
aF9.52793
aF9.52793
aF2.1
aI2
aa(lp206
I1468280100
aF9.52423
aF9.53749
aF9.52423
aF9.53749
aF9.53628
aF23.06987781
aI3
aa(lp207
I1468280400
aF9.51797
aF9.51797
aF9.51797
aF9.51797
aF9.51797
aF1.0
aI1
aa(lp208
I1468280700
aF9.55419
aF9.5644
aF9.5394
aF9.5394
aF9.55901
aF63.69240457
aI4
aa(lp209
I1468281000
aF9.5394
aF9.5394
aF9.5394
aF9.5394
aF0.0
aF0.0
aI0
aa(lp210
I1468281300
aF9.5394
aF9.5394
aF9.5394
aF9.5394
aF0.0
aF0.0
aI0
aa(lp211
I1468281600
aF9.5394
aF9.5394
aF9.5
aF9.5
aF9.5
aF227.5804312
aI4
aa(lp212
I1468281900
aF9.5
aF9.5
aF9.476
aF9.476
aF9.49826
aF10.498
aI3
aa(lp213
I1468282200
aF9.476
aF9.476
aF9.476
aF9.476
aF0.0
aF0.0
aI0
aa(lp214
I1468282500
aF9.476
aF9.476
aF9.476
aF9.476
aF0.0
aF0.0
aI0
aa(lp215
I1468282800
aF9.476
aF9.4885
aF9.476
aF9.4885
aF9.4885
aF13.06491015
aI2
aa(lp216
I1468283100
aF9.4885
aF9.4885
aF9.4885
aF9.4885
aF9.4885
aF0.0149444
aI1
aa(lp217
I1468283400
aF9.4885
aF9.4885
aF9.4885
aF9.4885
aF9.4885
aF0.02034041
aI1
aa(lp218
I1468283700
aF9.476
aF9.476
aF9.47314
aF9.47314
aF9.47595
aF178.78546382
aI2
aa(lp219
I1468284000
aF9.47314
aF9.47314
aF9.47314
aF9.47314
aF0.0
aF0.0
aI0
aa(lp220
I1468284300
aF9.47314
aF9.47314
aF9.47314
aF9.47314
aF0.0
aF0.0
aI0
aa(lp221
I1468284600
aF9.47314
aF9.5075
aF9.47314
aF9.5075
aF9.5075
aF0.0211
aI1
aa(lp222
I1468284900
aF9.5075
aF9.5075
aF9.5075
aF9.5075
aF0.0
aF0.0
aI0
aa(lp223
I1468285200
aF9.5075
aF9.5075
aF9.5075
aF9.5075
aF0.0
aF0.0
aI0
aa(lp224
I1468285500
aF9.5075
aF9.5075
aF9.5075
aF9.5075
aF0.0
aF0.0
aI0
aa(lp225
I1468285800
aF9.5075
aF9.5075
aF9.5075
aF9.5075
aF0.0
aF0.0
aI0
aa(lp226
I1468286100
aF9.5075
aF9.5075
aF9.5075
aF9.5075
aF0.0
aF0.0
aI0
aa(lp227
I1468286400
aF9.51
aF9.65
aF9.51
aF9.56362
aF9.56462
aF303.31135399
aI19
aa(lp228
I1468286700
aF9.51776
aF9.51776
aF9.51776
aF9.51776
aF9.51776
aF2.84
aI1
aa(lp229
I1468287000
aF9.51776
aF9.51776
aF9.5
aF9.5
aF9.5
aF1.0
aI1
aa(lp230
I1468287300
aF9.5
aF9.5
aF9.5
aF9.5
aF0.0
aF0.0
aI0
aa(lp231
I1468287600
aF9.5
aF9.5
aF9.5
aF9.5
aF0.0
aF0.0
aI0
aa(lp232
I1468287900
aF9.5
aF9.5
aF9.5
aF9.5
aF0.0
aF0.0
aI0
aa(lp233
I1468288200
aF9.5
aF9.5
aF9.5
aF9.5
aF0.0
aF0.0
aI0
aa(lp234
I1468288500
aF9.51
aF9.51
aF9.5
aF9.5
aF9.50171
aF181.18528571
aI5
aa(lp235
I1468288800
aF9.5
aF9.5
aF9.5
aF9.5
aF0.0
aF0.0
aI0
aa(lp236
I1468289100
aF9.5
aF9.5
aF9.5
aF9.5
aF0.0
aF0.0
aI0
aa(lp237
I1468289400
aF9.5
aF9.5
aF9.5
aF9.5
aF0.0
aF0.0
aI0
aa(lp238
I1468289700
aF9.5
aF9.5
aF9.5
aF9.5
aF0.0
aF0.0
aI0
aa(lp239
I1468290000
aF9.5
aF9.5
aF9.5
aF9.5
aF0.0
aF0.0
aI0
aa(lp240
I1468290300
aF9.5
aF9.5
aF9.5
aF9.5
aF0.0
aF0.0
aI0
aa(lp241
I1468290600
aF9.5
aF9.5
aF9.5
aF9.5
aF0.0
aF0.0
aI0
aa(lp242
I1468290900
aF9.5
aF9.5
aF9.5
aF9.5
aF0.0
aF0.0
aI0
aa(lp243
I1468291200
aF9.5
aF9.5
aF9.5
aF9.5
aF0.0
aF0.0
aI0
aa(lp244
I1468291500
aF9.5
aF9.5
aF9.5
aF9.5
aF0.0
aF0.0
aI0
aa(lp245
I1468291800
aF9.5
aF9.5
aF9.5
aF9.5
aF0.0
aF0.0
aI0
aa(lp246
I1468292100
aF9.5
aF9.5
aF9.5
aF9.5
aF0.0
aF0.0
aI0
aa(lp247
I1468292400
aF9.5
aF9.5
aF9.5
aF9.5
aF0.0
aF0.0
aI0
aa(lp248
I1468292700
aF9.5
aF9.5
aF9.46
aF9.48838
aF9.49884
aF129.1051468
aI8
aa(lp249
I1468293000
aF9.48838
aF9.48838
aF9.48838
aF9.48838
aF0.0
aF0.0
aI0
aa(lp250
I1468293300
aF9.48838
aF9.48838
aF9.48838
aF9.48838
aF0.0
aF0.0
aI0
aa(lp251
I1468293600
aF9.48838
aF9.48838
aF9.45167
aF9.48002
aF9.45874
aF0.80184
aI2
aa(lp252
I1468293900
aF9.48002
aF9.48002
aF9.48002
aF9.48002
aF0.0
aF0.0
aI0
aa(lp253
I1468294200
aF9.48002
aF9.48002
aF9.4527
aF9.4527
aF9.4527
aF2.14182
aI1
aa(lp254
I1468294500
aF9.4527
aF9.4527
aF9.4527
aF9.4527
aF0.0
aF0.0
aI0
aa(lp255
I1468294800
aF9.4527
aF9.46336
aF9.4527
aF9.46336
aF9.46336
aF1.00302
aI1
aa(lp256
I1468295100
aF9.46336
aF9.46336
aF9.46336
aF9.46336
aF0.0
aF0.0
aI0
aa(lp257
I1468295400
aF9.46336
aF9.46336
aF9.46336
aF9.46336
aF0.0
aF0.0
aI0
aa(lp258
I1468295700
aF9.46336
aF9.46336
aF9.46336
aF9.46336
aF0.0
aF0.0
aI0
aa(lp259
I1468296000
aF9.46336
aF9.46336
aF9.46336
aF9.46336
aF0.0
aF0.0
aI0
aa(lp260
I1468296300
aF9.46336
aF9.46336
aF9.46336
aF9.46336
aF0.0
aF0.0
aI0
aa(lp261
I1468296600
aF9.46336
aF9.46336
aF9.46336
aF9.46336
aF0.0
aF0.0
aI0
aa(lp262
I1468296900
aF9.46336
aF9.5
aF9.46336
aF9.5
aF9.5
aF1.0
aI1
aa(lp263
I1468297200
aF9.5
aF9.5
aF9.5
aF9.5
aF0.0
aF0.0
aI0
aa(lp264
I1468297500
aF9.5
aF9.5
aF9.5
aF9.5
aF9.5
aF1.08
aI1
aa(lp265
I1468297800
aF9.5
aF9.5
aF9.5
aF9.5
aF9.5
aF0.7
aI1
aa(lp266
I1468298100
aF9.5
aF9.5
aF9.5
aF9.5
aF0.0
aF0.0
aI0
aa(lp267
I1468298400
aF9.5
aF9.5
aF9.5
aF9.5
aF0.0
aF0.0
aI0
aa(lp268
I1468298700
aF9.5
aF9.51782
aF9.5
aF9.51782
aF9.51603
aF1.39126
aI2
aa(lp269
I1468299000
aF9.51782
aF9.51782
aF9.51782
aF9.51782
aF0.0
aF0.0
aI0
aa(lp270
I1468299300
aF9.51782
aF9.51782
aF9.5
aF9.5
aF9.5
aF2.0
aI1
aa(lp271
I1468299600
aF9.5
aF9.5
aF9.5
aF9.5
aF9.5
aF1.251747
aI1
aa(lp272
I1468299900
aF9.5
aF9.5
aF9.5
aF9.5
aF0.0
aF0.0
aI0
aa(lp273
I1468300200
aF9.5
aF9.5
aF9.5
aF9.5
aF0.0
aF0.0
aI0
aa(lp274
I1468300500
aF9.5
aF9.5
aF9.5
aF9.5
aF9.5
aF9.7189
aI2
aa(lp275
I1468300800
aF9.5
aF9.5
aF9.5
aF9.5
aF0.0
aF0.0
aI0
aa(lp276
I1468301100
aF9.5
aF9.50928
aF9.5
aF9.5
aF9.50045
aF20.59615004
aI4
aa(lp277
I1468301400
aF9.5
aF9.5
aF9.5
aF9.5
aF9.5
aF68.36694792
aI8
aa(lp278
I1468301700
aF9.5
aF9.5
aF9.5
aF9.5
aF9.5
aF11.52661185
aI2
aa(lp279
I1468302000
aF9.5
aF9.5
aF9.45499
aF9.45499
aF9.4999
aF45.0827087
aI6
aa(lp280
I1468302300
aF9.45499
aF9.46918
aF9.45499
aF9.46918
aF9.46918
aF1.0279
aI1
aa(lp281
I1468302600
aF9.46918
aF9.504
aF9.46918
aF9.50095
aF9.50096
aF25.59014824
aI7
aa(lp282
I1468302900
aF9.48521
aF9.49463
aF9.48521
aF9.49463
aF9.48661
aF85.94507412
aI4
aa(lp283
I1468303200
aF9.50915
aF9.54528
aF9.50272
aF9.54528
aF9.51178
aF16.44108
aI9
aa(lp284
I1468303500
aF9.54528
aF9.54528
aF9.54528
aF9.54528
aF0.0
aF0.0
aI0
aa(lp285
I1468303800
aF9.54528
aF9.55611
aF9.54528
aF9.55611
aF9.54731
aF1.06222377
aI2
aa(lp286
I1468304100
aF9.55611
aF9.6967
aF9.55611
aF9.56566
aF9.69395
aF66.99944734
aI4
aa(lp287
I1468304400
aF9.56566
aF9.58
aF9.56566
aF9.58
aF9.58
aF5.0
aI2
aa(lp288
I1468304700
aF9.58
aF9.58315
aF9.56037
aF9.58315
aF9.56436
aF1.20504336
aI3
aa(lp289
I1468305000
aF9.58315
aF9.58315
aF9.55611
aF9.55611
aF9.55934
aF21.04
aI2
aa(lp290
I1468305300
aF9.55611
aF9.55611
aF9.55611
aF9.55611
aF9.55611
aF1.00201
aI1
aa(lp291
I1468305600
aF9.55611
aF9.55611
aF9.55611
aF9.55611
aF9.55611
aF44.45799
aI1
aa(lp292
I1468305900
aF9.55611
aF9.55611
aF9.55611
aF9.55611
aF0.0
aF0.0
aI0
aa(lp293
I1468306200
aF9.55611
aF9.6
aF9.54045
aF9.54045
aF9.55541
aF53.52389687
aI9
aa(lp294
I1468306500
aF9.5054
aF9.50766
aF9.5054
aF9.50766
aF9.50714
aF0.64749
aI2
aa(lp295
I1468306800
aF9.50766
aF9.50766
aF9.50766
aF9.50766
aF0.0
aF0.0
aI0
aa(lp296
I1468307100
aF9.50483
aF9.50483
aF9.50383
aF9.50384
aF9.50426
aF287.64841
aI3
aa(lp297
I1468307400
aF9.50384
aF9.50384
aF9.50384
aF9.50384
aF0.0
aF0.0
aI0
aa(lp298
I1468307700
aF9.53581
aF9.53581
aF9.52479
aF9.52479
aF9.53225
aF3.1
aI3
aa(lp299
I1468308000
aF9.52256
aF9.52265
aF9.52256
aF9.52265
aF9.52256
aF9.41366
aI2
aa(lp300
I1468308300
aF9.52265
aF9.53
aF9.52265
aF9.53
aF9.52396
aF7.04603144
aI2
aa(lp301
I1468308600
aF9.53
aF9.58632
aF9.53
aF9.58632
aF9.58632
aF0.13083083
aI1
aa(lp302
I1468308900
aF9.58632
aF9.58632
aF9.54933
aF9.55035
aF9.55032
aF42.9
aI2
aa(lp303
I1468309200
aF9.55035
aF9.60236
aF9.55035
aF9.60236
aF9.60154
aF55.6335
aI5
aa(lp304
I1468309500
aF9.6
aF9.60638
aF9.56458
aF9.60638
aF9.56817
aF61.00508012
aI3
aa(lp305
I1468309800
aF9.60638
aF9.64
aF9.60638
aF9.64
aF9.63985
aF103.45848
aI3
aa(lp306
I1468310100
aF9.64
aF9.64
aF9.61545
aF9.61824
aF9.61685
aF21.48104
aI3
aa(lp307
I1468310400
aF9.61824
aF9.66629
aF9.6
aF9.6
aF9.624
aF459.49714268
aI24
aa(lp308
I1468310700
aF9.6
aF9.67
aF9.6
aF9.669
aF9.66949
aF108.76
aI5
aa(lp309
I1468311000
aF9.669
aF9.67
aF9.669
aF9.67
aF9.66909
aF207.53603753
aI14
aa(lp310
I1468311300
aF9.67
aF9.67
aF9.629
aF9.629
aF9.64827
aF248.36536114
aI12
aa(lp311
I1468311600
aF9.629
aF9.667
aF9.60516
aF9.60516
aF9.65798
aF48.9363
aI2
aa(lp312
I1468311900
aF9.60516
aF9.60516
aF9.60516
aF9.60516
aF0.0
aF0.0
aI0
aa(lp313
I1468312200
aF9.60516
aF9.669
aF9.60516
aF9.6685
aF9.66815
aF396.68713089
aI5
aa(lp314
I1468312500
aF9.6685
aF9.6685
aF9.6685
aF9.6685
aF9.6685
aF608.0
aI1
aa(lp315
I1468312800
aF9.669
aF9.669
aF9.6
aF9.6
aF9.65808
aF368.7859
aI6
aa(lp316
I1468313100
aF9.6
aF9.659
aF9.58862
aF9.659
aF9.65886
aF78.12824864
aI4
aa(lp317
I1468313400
aF9.659
aF9.6685
aF9.659
aF9.6685
aF9.66627
aF147.62720533
aI4
aa(lp318
I1468313700
aF9.668
aF9.669
aF9.668
aF9.669
aF9.66815
aF101.70339053
aI5
aa(lp319
I1468314000
aF9.669
aF9.67
aF9.65
aF9.6695
aF9.66842
aF383.79936627
aI18
aa(lp320
I1468314300
aF9.67
aF9.67
aF9.65
aF9.67
aF9.66806
aF189.18126942
aI9
aa(lp321
I1468314600
aF9.67
aF9.67
aF9.65
aF9.65
aF9.65246
aF169.61156328
aI4
aa(lp322
I1468314900
aF9.65
aF9.65
aF9.65
aF9.65
aF0.0
aF0.0
aI0
aa(lp323
I1468315200
aF9.62102
aF9.668
aF9.62102
aF9.668
aF9.63142
aF13.54707
aI2
aa(lp324
I1468315500
aF9.658
aF9.66798
aF9.62
aF9.62
aF9.65746
aF1.07641228
aI3
aa(lp325
I1468315800
aF9.62
aF9.62
aF9.62
aF9.62
aF0.0
aF0.0
aI0
aa(lp326
I1468316100
aF9.62
aF9.68095
aF9.62
aF9.68095
aF9.66662
aF337.84622078
aI12
aa(lp327
I1468316400
aF9.69
aF9.71997
aF9.69
aF9.69397
aF9.70404
aF12.61268959
aI19
aa(lp328
I1468316700
aF9.7
aF9.7
aF9.66248
aF9.66433
aF9.6872
aF14.0280292
aI5
aa(lp329
I1468317000
aF9.66433
aF9.665
aF9.66433
aF9.665
aF9.665
aF12.99485826
aI1
aa(lp330
I1468317300
aF9.64511
aF9.65
aF9.64511
aF9.65
aF9.64948
aF19.65177
aI2
aa(lp331
I1468317600
aF9.65
aF9.79896
aF9.63859
aF9.681
aF9.72599
aF4143.47754031
aI65
aa(lp332
I1468317900
aF9.7208
aF9.72129
aF9.642
aF9.72129
aF9.66313
aF771.3450006
aI16
aa(lp333
I1468318200
aF9.70899
aF9.78
aF9.67291
aF9.75
aF9.73116
aF1055.20212647
aI28
aa(lp334
I1468318500
aF9.75
aF9.75
aF9.72726
aF9.73178
aF9.74919
aF101.00311694
aI9
aa(lp335
I1468318800
aF9.73178
aF9.73178
aF9.73178
aF9.73178
aF0.0
aF0.0
aI0
aa(lp336
I1468319100
aF9.732
aF9.732
aF9.732
aF9.732
aF9.732
aF100.0
aI2
aa(lp337
I1468319400
aF9.732
aF9.74495
aF9.705
aF9.74495
aF9.74073
aF6.34397
aI2
aa(lp338
I1468319700
aF9.74495
aF9.74495
aF9.68166
aF9.68166
aF9.70351
aF261.98350497
aI4
aa(lp339
I1468320000
aF9.68166
aF9.74396
aF9.68164
aF9.74195
aF9.71798
aF184.23387225
aI5
aa(lp340
I1468320300
aF9.74195
aF9.74195
aF9.74195
aF9.74195
aF0.0
aF0.0
aI0
aa(lp341
I1468320600
aF9.74195
aF9.749
aF9.70451
aF9.70802
aF9.73164
aF179.675
aI8
aa(lp342
I1468320900
aF9.70802
aF9.70802
aF9.70802
aF9.70802
aF0.0
aF0.0
aI0
aa(lp343
I1468321200
aF9.70802
aF9.70802
aF9.70802
aF9.70802
aF0.0
aF0.0
aI0
aa(lp344
I1468321500
aF9.70802
aF9.76409
aF9.70802
aF9.76308
aF9.75635
aF285.392732
aI7
aa(lp345
I1468321800
aF9.76308
aF9.76549
aF9.76308
aF9.76399
aF9.76336
aF239.86895589
aI11
aa(lp346
I1468322100
aF9.76399
aF9.82569
aF9.72707
aF9.72707
aF9.77024
aF693.37464415
aI27
aa(lp347
I1468322400
aF9.72707
aF9.7688
aF9.72707
aF9.7688
aF9.7688
aF1.0
aI1
aa(lp348
I1468322700
aF9.7688
aF9.7688
aF9.76328
aF9.76328
aF9.76328
aF20.484919
aI1
aa(lp349
I1468323000
aF9.76328
aF9.76328
aF9.7548
aF9.7548
aF9.7548
aF1.5
aI1
aa(lp350
I1468323300
aF9.73
aF9.73
aF9.72179
aF9.73
aF9.72836
aF251.00661
aI4
aa(lp351
I1468323600
aF9.74529
aF9.7458
aF9.73
aF9.7453
aF9.73822
aF37.71072456
aI12
aa(lp352
I1468323900
aF9.7453
aF9.7453
aF9.7
aF9.7
aF9.72193
aF237.28860089
aI7
aa(lp353
I1468324200
aF9.68019
aF9.68739
aF9.68019
aF9.68739
aF9.68038
aF36.23603604
aI3
aa(lp354
I1468324500
aF9.68739
aF9.68739
aF9.68739
aF9.68739
aF0.0
aF0.0
aI0
aa(lp355
I1468324800
aF9.6833
aF9.6833
aF9.6833
aF9.6833
aF9.6833
aF31.2
aI1
aa(lp356
I1468325100
aF9.6833
aF9.70924
aF9.6802
aF9.70924
aF9.68084
aF28.08576
aI4
aa(lp357
I1468325400
aF9.72549
aF9.7255
aF9.72
aF9.72001
aF9.72428
aF19.43825
aI5
aa(lp358
I1468325700
aF9.71901
aF9.71901
aF9.7
aF9.7
aF9.71197
aF13.51999053
aI3
aa(lp359
I1468326000
aF9.7
aF9.7
aF9.7
aF9.7
aF0.0
aF0.0
aI0
aa(lp360
I1468326300
aF9.7145
aF9.7145
aF9.713
aF9.713
aF9.71349
aF15.29125
aI2
aa(lp361
I1468326600
aF9.713
aF9.713
aF9.6775
aF9.6775
aF9.67948
aF427.72077079
aI11
aa(lp362
I1468326900
aF9.6775
aF9.6775
aF9.6711
aF9.6731
aF9.67231
aF40.50032032
aI3
aa(lp363
I1468327200
aF9.6711
aF9.6711
aF9.6686
aF9.6696
aF9.66978
aF296.43608683
aI6
aa(lp364
I1468327500
aF9.6604
aF9.6604
aF9.66
aF9.66
aF9.66
aF360.58715439
aI12
aa(lp365
I1468327800
aF9.66
aF9.66
aF9.65
aF9.65
aF9.65886
aF145.18823097
aI6
aa(lp366
I1468328100
aF9.65
aF9.65
aF9.61869
aF9.61869
aF9.64598
aF898.96381356
aI13
aa(lp367
I1468328400
aF9.6204
aF9.723
aF9.6204
aF9.65519
aF9.658
aF146.02284183
aI15
aa(lp368
I1468328700
aF9.65519
aF9.65519
aF9.64741
aF9.65229
aF9.65048
aF10.71268
aI2
aa(lp369
I1468329000
aF9.64741
aF9.6784
aF9.61829
aF9.6774
aF9.66561
aF69.49748991
aI9
aa(lp370
I1468329300
aF9.6774
aF9.6774
aF9.61783
aF9.61784
aF9.61783
aF61.12371
aI2
aa(lp371
I1468329600
aF9.61784
aF9.63
aF9.61784
aF9.63
aF9.62999
aF258.92552556
aI2
aa(lp372
I1468329900
aF9.629
aF9.63
aF9.61
aF9.61
aF9.61934
aF1091.8174731
aI13
aa(lp373
I1468330200
aF9.629
aF9.6329
aF9.6
aF9.6
aF9.60489
aF828.222172
aI10
aa(lp374
I1468330500
aF9.58359
aF9.59169
aF9.56104
aF9.58589
aF9.57037
aF157.09306
aI11
aa(lp375
I1468330800
aF9.58589
aF9.58589
aF9.58589
aF9.58589
aF0.0
aF0.0
aI0
aa(lp376
I1468331100
aF9.58589
aF9.58589
aF9.58589
aF9.58589
aF0.0
aF0.0
aI0
aa(lp377
I1468331400
aF9.6194
aF9.6194
aF9.6174
aF9.6174
aF9.61862
aF180.07326447
aI3
aa(lp378
I1468331700
aF9.6174
aF9.6379
aF9.6174
aF9.6379
aF9.6379
aF70.28698
aI2
aa(lp379
I1468332000
aF9.6379
aF9.6384
aF9.6194
aF9.6194
aF9.63128
aF235.0799
aI6
aa(lp380
I1468332300
aF9.6194
aF9.6194
aF9.6194
aF9.6194
aF0.0
aF0.0
aI0
aa(lp381
I1468332600
aF9.6194
aF9.6194
aF9.6194
aF9.6194
aF9.6194
aF157.25180201
aI4
aa(lp382
I1468332900
aF9.6194
aF9.6194
aF9.6194
aF9.6194
aF0.0
aF0.0
aI0
aa(lp383
I1468333200
aF9.6194
aF9.6194
aF9.6194
aF9.6194
aF0.0
aF0.0
aI0
aa(lp384
I1468333500
aF9.6194
aF9.6755
aF9.6194
aF9.6755
aF9.66688
aF31.0
aI2
aa(lp385
I1468333800
aF9.6755
aF9.6755
aF9.672
aF9.672
aF9.672
aF0.04
aI1
aa(lp386
I1468334100
aF9.672
aF9.672
aF9.669
aF9.669
aF9.669
aF55.0
aI1
aa(lp387
I1468334400
aF9.6685
aF9.72849
aF9.667
aF9.72849
aF9.71795
aF171.68639733
aI9
aa(lp388
I1468334700
aF9.6645
aF9.6645
aF9.6645
aF9.6645
aF9.6645
aF10.34714677
aI1
aa(lp389
I1468335000
aF9.7164
aF9.7164
aF9.7164
aF9.7164
aF9.7164
aF0.8
aI1
aa(lp390
I1468335300
aF9.7164
aF9.7164
aF9.7164
aF9.7164
aF0.0
aF0.0
aI0
aa(lp391
I1468335600
aF9.7164
aF9.7164
aF9.7164
aF9.7164
aF0.0
aF0.0
aI0
aa(lp392
I1468335900
aF9.68611
aF9.68611
aF9.68611
aF9.68611
aF9.68611
aF0.07518758
aI1
aa(lp393
I1468336200
aF9.68611
aF9.68611
aF9.68611
aF9.68611
aF0.0
aF0.0
aI0
aa(lp394
I1468336500
aF9.7245
aF9.7245
aF9.66321
aF9.66424
aF9.66421
aF6.31469642
aI3
aa(lp395
I1468336800
aF9.71746
aF9.71746
aF9.71746
aF9.71746
aF9.71746
aF5.05173162
aI1
aa(lp396
I1468337100
aF9.71746
aF9.71746
aF9.63411
aF9.67898
aF9.67699
aF91.9898536
aI5
aa(lp397
I1468337400
aF9.67898
aF9.67898
aF9.67898
aF9.67898
aF0.0
aF0.0
aI0
aa(lp398
I1468337700
aF9.67898
aF9.67898
aF9.67898
aF9.67898
aF0.0
aF0.0
aI0
aa(lp399
I1468338000
aF9.67898
aF9.67898
aF9.67898
aF9.67898
aF0.0
aF0.0
aI0
aa(lp400
I1468338300
aF9.69389
aF9.69389
aF9.69389
aF9.69389
aF9.69389
aF0.1453
aI1
aa(lp401
I1468338600
aF9.64
aF9.64
aF9.633
aF9.633
aF9.63977
aF87.81
aI2
aa(lp402
I1468338900
aF9.633
aF9.633
aF9.633
aF9.633
aF0.0
aF0.0
aI0
aa(lp403
I1468339200
aF9.6519
aF9.6519
aF9.63
aF9.65189
aF9.64981
aF219.65735477
aI5
aa(lp404
I1468339500
aF9.65139
aF9.6519
aF9.632
aF9.6519
aF9.65135
aF1308.8867653
aI11
aa(lp405
I1468339800
aF9.6519
aF9.72583
aF9.6519
aF9.72583
aF9.69607
aF263.50264156
aI12
aa(lp406
I1468340100
aF9.74699
aF9.747
aF9.71588
aF9.71588
aF9.73991
aF1264.46199754
aI22
aa(lp407
I1468340400
aF9.67921
aF9.79019
aF9.6792
aF9.79019
aF9.74908
aF865.38406
aI29
aa(lp408
I1468340700
aF9.72451
aF9.7683
aF9.72
aF9.72
aF9.74152
aF202.529174
aI7
aa(lp409
I1468341000
aF9.72
aF9.72
aF9.65895
aF9.65895
aF9.66668
aF17.5422
aI5
aa(lp410
I1468341300
aF9.64446
aF9.6575
aF9.64446
aF9.64547
aF9.65357
aF45.65349445
aI6
aa(lp411
I1468341600
aF9.65895
aF9.65895
aF9.65203
aF9.65203
aF9.65843
aF162.00581
aI7
aa(lp412
I1468341900
aF9.65203
aF9.65203
aF9.61547
aF9.61547
aF9.62222
aF6.6615
aI2
aa(lp413
I1468342200
aF9.61547
aF9.66236
aF9.59603
aF9.66236
aF9.60472
aF462.53115
aI7
aa(lp414
I1468342500
aF9.66236
aF9.66236
aF9.60002
aF9.60221
aF9.60211
aF63.835053
aI3
aa(lp415
I1468342800
aF9.60221
aF9.60221
aF9.60221
aF9.60221
aF0.0
aF0.0
aI0
aa(lp416
I1468343100
aF9.60221
aF9.60221
aF9.60221
aF9.60221
aF0.0
aF0.0
aI0
aa(lp417
I1468343400
aF9.60221
aF9.60221
aF9.60221
aF9.60221
aF0.0
aF0.0
aI0
aa(lp418
I1468343700
aF9.60221
aF9.60221
aF9.60221
aF9.60221
aF0.0
aF0.0
aI0
aa(lp419
I1468344000
aF9.60006
aF9.60006
aF9.60006
aF9.60006
aF9.60006
aF0.1045953
aI1
aa(lp420
I1468344300
aF9.6443
aF9.6443
aF9.6443
aF9.6443
aF9.6443
aF0.21478
aI1
aa(lp421
I1468344600
aF9.6443
aF9.6443
aF9.58392
aF9.58392
aF9.59372
aF96.4017017
aI7
aa(lp422
I1468344900
aF9.58392
aF9.58392
aF9.58392
aF9.58392
aF0.0
aF0.0
aI0
aa(lp423
I1468345200
aF9.57157
aF9.57157
aF9.57157
aF9.57157
aF9.57157
aF0.5959
aI1
aa(lp424
I1468345500
aF9.57157
aF9.58295
aF9.56002
aF9.56002
aF9.58239
aF41.0
aI2
aa(lp425
I1468345800
aF9.56002
aF9.61639
aF9.56002
aF9.61639
aF9.61639
aF5.0
aI1
aa(lp426
I1468346100
aF9.61639
aF9.61639
aF9.55399
aF9.55399
aF9.55881
aF105.1280851
aI3
aa(lp427
I1468346400
aF9.53939
aF9.64707
aF9.50733
aF9.53928
aF9.59333
aF863.50955458
aI16
aa(lp428
I1468346700
aF9.53928
aF9.5816
aF9.53928
aF9.5816
aF9.57981
aF100.0
aI2
aa(lp429
I1468347000
aF9.5816
aF9.5816
aF9.51
aF9.56858
aF9.55446
aF255.0
aI12
aa(lp430
I1468347300
aF9.56858
aF9.56858
aF9.51401
aF9.51401
aF9.51401
aF20.0
aI1
aa(lp431
I1468347600
aF9.51401
aF9.52001
aF9.51401
aF9.52001
aF9.52001
aF20.2126671
aI1
aa(lp432
I1468347900
aF9.52001
aF9.52001
aF9.52001
aF9.52001
aF0.0
aF0.0
aI0
aa(lp433
I1468348200
aF9.5395
aF9.556
aF9.5395
aF9.556
aF9.5536
aF17.551355
aI2
aa(lp434
I1468348500
aF9.556
aF9.57701
aF9.556
aF9.56225
aF9.56848
aF165.46036116
aI5
aa(lp435
I1468348800
aF9.56225
aF9.56225
aF9.56225
aF9.56225
aF0.0
aF0.0
aI0
aa(lp436
I1468349100
aF9.56225
aF9.58916
aF9.56225
aF9.58916
aF9.58916
aF3.064
aI1
aa(lp437
I1468349400
aF9.58916
aF9.58916
aF9.58916
aF9.58916
aF0.0
aF0.0
aI0
aa(lp438
I1468349700
aF9.58916
aF9.58916
aF9.58916
aF9.58916
aF0.0
aF0.0
aI0
aa(lp439
I1468350000
aF9.58916
aF9.58916
aF9.56125
aF9.56125
aF9.56125
aF1.0
aI1
aa(lp440
I1468350300
aF9.56125
aF9.5986
aF9.51071
aF9.51071
aF9.51757
aF397.07205739
aI13
aa(lp441
I1468350600
aF9.51071
aF9.51071
aF9.51
aF9.51
aF9.51
aF50.0
aI2
aa(lp442
I1468350900
aF9.51
aF9.51
aF9.51
aF9.51
aF0.0
aF0.0
aI0
aa(lp443
I1468351200
aF9.5736
aF9.5736
aF9.5726
aF9.57261
aF9.57301
aF36.09276533
aI3
aa(lp444
I1468351500
aF9.57261
aF9.6
aF9.54451
aF9.6
aF9.588
aF300.31797
aI6
aa(lp445
I1468351800
aF9.6
aF9.6
aF9.595
aF9.595
aF9.595
aF0.3882803
aI1
aa(lp446
I1468352100
aF9.595
aF9.595
aF9.595
aF9.595
aF0.0
aF0.0
aI0
aa(lp447
I1468352400
aF9.5895
aF9.5895
aF9.5885
aF9.5885
aF9.58852
aF106.55332353
aI2
aa(lp448
I1468352700
aF9.588
aF9.588
aF9.588
aF9.588
aF9.588
aF43.7
aI1
aa(lp449
I1468353000
aF9.588
aF9.588
aF9.588
aF9.588
aF0.0
aF0.0
aI0
aa(lp450
I1468353300
aF9.588
aF9.62919
aF9.588
aF9.6
aF9.60774
aF605.25254846
aI7
aa(lp451
I1468353600
aF9.6
aF9.6
aF9.6
aF9.6
aF9.6
aF210.86941652
aI6
aa(lp452
I1468353900
aF9.6
aF9.6
aF9.55
aF9.55
aF9.55
aF19.79418
aI1
aa(lp453
I1468354200
aF9.55
aF9.55
aF9.55
aF9.55
aF0.0
aF0.0
aI0
aa(lp454
I1468354500
aF9.55771
aF9.6085
aF9.55771
aF9.6085
aF9.59226
aF14.07485559
aI2
aa(lp455
I1468354800
aF9.604
aF9.604
aF9.604
aF9.604
aF9.604
aF70.25957439
aI2
aa(lp456
I1468355100
aF9.57918
aF9.57918
aF9.551
aF9.551
aF9.57661
aF11.00477408
aI2
aa(lp457
I1468355400
aF9.551
aF9.581
aF9.551
aF9.5775
aF9.58006
aF13.66
aI2
aa(lp458
I1468355700
aF9.577
aF9.577
aF9.577
aF9.577
aF9.577
aF16.36636637
aI1
aa(lp459
I1468356000
aF9.579
aF9.579
aF9.55101
aF9.55108
aF9.55736
aF10.06233
aI4
aa(lp460
I1468356300
aF9.55108
aF9.578
aF9.55108
aF9.577
aF9.57783
aF16.17157754
aI3
aa(lp461
I1468356600
aF9.577
aF9.6
aF9.577
aF9.6
aF9.59214
aF631.0
aI2
aa(lp462
I1468356900
aF9.6
aF9.6
aF9.57
aF9.57
aF9.57093
aF84.01509998
aI3
aa(lp463
I1468357200
aF9.57
aF9.57
aF9.551
aF9.551
aF9.551
aF98.99821
aI2
aa(lp464
I1468357500
aF9.551
aF9.551
aF9.551
aF9.551
aF0.0
aF0.0
aI0
aa(lp465
I1468357800
aF9.551
aF9.56773
aF9.551
aF9.56773
aF9.56773
aF0.83614399
aI1
aa(lp466
I1468358100
aF9.54318
aF9.54318
aF9.5
aF9.5
aF9.52315
aF1342.57000813
aI21
aa(lp467
I1468358400
aF9.5
aF9.5022
aF9.5
aF9.5022
aF9.50164
aF447.513469
aI9
aa(lp468
I1468358700
aF9.5022
aF9.5022
aF9.5022
aF9.5022
aF9.5022
aF279.7306
aI2
aa(lp469
I1468359000
aF9.5022
aF9.51893
aF9.5022
aF9.504
aF9.50348
aF154.98835242
aI9
aa(lp470
I1468359300
aF9.506
aF9.506
aF9.5022
aF9.5022
aF9.50246
aF254.25862339
aI9
aa(lp471
I1468359600
aF9.5022
aF9.5022
aF9.5022
aF9.5022
aF9.5022
aF86.37045952
aI4
aa(lp472
I1468359900
aF9.5022
aF9.5027
aF9.5022
aF9.5027
aF9.50255
aF101.01792
aI3
aa(lp473
I1468360200
aF9.51086
aF9.52285
aF9.5022
aF9.5022
aF9.51888
aF54.45287805
aI4
aa(lp474
I1468360500
aF9.5022
aF9.5022
aF9.5022
aF9.5022
aF0.0
aF0.0
aI0
aa(lp475
I1468360800
aF9.5022
aF9.51368
aF9.5022
aF9.51368
aF9.51306
aF19.14247
aI3
aa(lp476
I1468361100
aF9.5022
aF9.5137
aF9.5022
aF9.51369
aF9.50597
aF11.74502461
aI4
aa(lp477
I1468361400
aF9.51369
aF9.51369
aF9.5022
aF9.5022
aF9.5022
aF5.741
aI1
aa(lp478
I1468361700
aF9.5022
aF9.512
aF9.5022
aF9.512
aF9.512
aF1.51844
aI1
aa(lp479
I1468362000
aF9.512
aF9.58807
aF9.512
aF9.58807
aF9.54612
aF3.6
aI2
aa(lp480
I1468362300
aF9.58807
aF9.69999
aF9.58807
aF9.61456
aF9.6765
aF779.15603122
aI16
aa(lp481
I1468362600
aF9.61456
aF9.61456
aF9.561
aF9.60714
aF9.60337
aF30.39249204
aI6
aa(lp482
I1468362900
aF9.60714
aF9.60714
aF9.52
aF9.54662
aF9.52378
aF58.512
aI5
aa(lp483
I1468363200
aF9.54662
aF9.54763
aF9.5022
aF9.5307
aF9.54624
aF330.27497581
aI14
aa(lp484
I1468363500
aF9.5307
aF9.5596
aF9.5307
aF9.54926
aF9.55503
aF9.01087647
aI4
aa(lp485
I1468363800
aF9.52429
aF9.52429
aF9.52429
aF9.52429
aF9.52429
aF5.0
aI1
aa(lp486
I1468364100
aF9.52429
aF9.52429
aF9.52329
aF9.52329
aF9.52329
aF0.1
aI1
aa(lp487
I1468364400
aF9.52329
aF9.54187
aF9.52329
aF9.54187
aF9.54187
aF9.1177
aI2
aa(lp488
I1468364700
aF9.54187
aF9.54187
aF9.50673
aF9.53546
aF9.50674
aF59.46318014
aI2
aa(lp489
I1468365000
aF9.53546
aF9.54926
aF9.53546
aF9.54926
aF9.54926
aF2.008
aI1
aa(lp490
I1468365300
aF9.58202
aF9.58202
aF9.58202
aF9.58202
aF9.58202
aF0.01366231
aI1
aa(lp491
I1468365600
aF9.58
aF9.58
aF9.58
aF9.58
aF9.58
aF0.02205048
aI1
aa(lp492
I1468365900
aF9.58
aF9.58
aF9.58
aF9.58
aF0.0
aF0.0
aI0
aa(lp493
I1468366200
aF9.58
aF9.58
aF9.51911
aF9.57801
aF9.53052
aF11.31
aI2
aa(lp494
I1468366500
aF9.57801
aF9.57801
aF9.53
aF9.53
aF9.53275
aF1.01
aI2
aa(lp495
I1468366800
aF9.58202
aF9.58202
aF9.58202
aF9.58202
aF9.58202
aF0.244
aI3
aa(lp496
I1468367100
aF9.57069
aF9.58202
aF9.55218
aF9.55218
aF9.56268
aF30.76506387
aI6
aa(lp497
I1468367400
aF9.55218
aF9.55218
aF9.55218
aF9.55218
aF0.0
aF0.0
aI0
aa(lp498
I1468367700
aF9.55218
aF9.55218
aF9.55218
aF9.55218
aF0.0
aF0.0
aI0
aa(lp499
I1468368000
aF9.55218
aF9.55218
aF9.55218
aF9.55218
aF0.0
aF0.0
aI0
aa(lp500
I1468368300
aF9.55218
aF9.55218
aF9.55218
aF9.55218
aF0.0
aF0.0
aI0
aa(lp501
I1468368600
aF9.55218
aF9.55218
aF9.55218
aF9.55218
aF0.0
aF0.0
aI0
aa(lp502
I1468368900
aF9.55218
aF9.5563
aF9.55218
aF9.5563
aF9.5563
aF0.5
aI1
aa(lp503
I1468369200
aF9.5563
aF9.5563
aF9.5563
aF9.5563
aF0.0
aF0.0
aI0
aa(lp504
I1468369500
aF9.5563
aF9.5563
aF9.5563
aF9.5563
aF0.0
aF0.0
aI0
aa(lp505
I1468369800
aF9.5563
aF9.5563
aF9.5563
aF9.5563
aF0.0
aF0.0
aI0
aa(lp506
I1468370100
aF9.5563
aF9.5563
aF9.51
aF9.51
aF9.51
aF0.065
aI1
aa(lp507
I1468370400
aF9.51
aF9.51
aF9.51
aF9.51
aF0.0
aF0.0
aI0
aa(lp508
I1468370700
aF9.51
aF9.51
aF9.51
aF9.51
aF0.0
aF0.0
aI0
aa(lp509
I1468371000
aF9.51
aF9.51
aF9.51
aF9.51
aF0.0
aF0.0
aI0
aa(lp510
I1468371300
aF9.51
aF9.51
aF9.51
aF9.51
aF9.51
aF0.0198
aI1
aa(lp511
I1468371600
aF9.51
aF9.54969
aF9.51
aF9.54969
aF9.54968
aF40.0
aI2
aa(lp512
I1468371900
aF9.54969
aF9.54969
aF9.54969
aF9.54969
aF0.0
aF0.0
aI0
aa(lp513
I1468372200
aF9.54969
aF9.54969
aF9.54969
aF9.54969
aF0.0
aF0.0
aI0
aa(lp514
I1468372500
aF9.54969
aF9.54969
aF9.54969
aF9.54969
aF0.0
aF0.0
aI0
aa(lp515
I1468372800
aF9.54969
aF9.55068
aF9.54969
aF9.55068
aF9.55068
aF0.04492804
aI1
aa(lp516
I1468373100
aF9.55068
aF9.55068
aF9.55068
aF9.55068
aF0.0
aF0.0
aI0
aa(lp517
I1468373400
aF9.55068
aF9.55068
aF9.55068
aF9.55068
aF0.0
aF0.0
aI0
aa(lp518
I1468373700
aF9.54968
aF9.54968
aF9.54968
aF9.54968
aF9.54968
aF8.8399
aI1
aa(lp519
I1468374000
aF9.54968
aF9.54968
aF9.51302
aF9.51302
aF9.54956
aF31.2404
aI2
aa(lp520
I1468374300
aF9.51302
aF9.51302
aF9.51302
aF9.51302
aF0.0
aF0.0
aI0
aa(lp521
I1468374600
aF9.51302
aF9.51302
aF9.51302
aF9.51302
aF0.0
aF0.0
aI0
aa(lp522
I1468374900
aF9.51302
aF9.5815
aF9.51302
aF9.5815
aF9.5815
aF15.00376821
aI1
aa(lp523
I1468375200
aF9.5815
aF9.5815
aF9.5815
aF9.5815
aF0.0
aF0.0
aI0
aa(lp524
I1468375500
aF9.54604
aF9.54604
aF9.54604
aF9.54604
aF9.54604
aF5.32353
aI1
aa(lp525
I1468375800
aF9.54604
aF9.54604
aF9.54604
aF9.54604
aF0.0
aF0.0
aI0
aa(lp526
I1468376100
aF9.54604
aF9.54604
aF9.54604
aF9.54604
aF0.0
aF0.0
aI0
aa(lp527
I1468376400
aF9.54604
aF9.54604
aF9.54604
aF9.54604
aF0.0
aF0.0
aI0
aa(lp528
I1468376700
aF9.54604
aF9.5885
aF9.54604
aF9.5885
aF9.57597
aF200.963
aI5
aa(lp529
I1468377000
aF9.56101
aF9.58906
aF9.56101
aF9.58906
aF9.57909
aF4.369735
aI2
aa(lp530
I1468377300
aF9.58906
aF9.60218
aF9.58906
aF9.60218
aF9.60137
aF14.0199245
aI3
aa(lp531
I1468377600
aF9.60218
aF9.60218
aF9.60218
aF9.60218
aF0.0
aF0.0
aI0
aa(lp532
I1468377900
aF9.60218
aF9.61
aF9.5743
aF9.5743
aF9.59629
aF27.24766065
aI5
aa(lp533
I1468378200
aF9.5743
aF9.5743
aF9.5743
aF9.5743
aF0.0
aF0.0
aI0
aa(lp534
I1468378500
aF9.5743
aF9.5878
aF9.5743
aF9.5878
aF9.5878
aF0.06451786
aI1
aa(lp535
I1468378800
aF9.5878
aF9.5878
aF9.5878
aF9.5878
aF0.0
aF0.0
aI0
aa(lp536
I1468379100
aF9.5878
aF9.5878
aF9.5878
aF9.5878
aF0.0
aF0.0
aI0
aa(lp537
I1468379400
aF9.5878
aF9.5878
aF9.5878
aF9.5878
aF0.0
aF0.0
aI0
aa(lp538
I1468379700
aF9.5878
aF9.5878
aF9.5878
aF9.5878
aF0.0
aF0.0
aI0
aa(lp539
I1468380000
aF9.5878
aF9.5878
aF9.5878
aF9.5878
aF0.0
aF0.0
aI0
aa(lp540
I1468380300
aF9.5878
aF9.5878
aF9.55673
aF9.55673
aF9.55673
aF55.0
aI1
aa(lp541
I1468380600
aF9.55673
aF9.55673
aF9.55673
aF9.55673
aF0.0
aF0.0
aI0
aa(lp542
I1468380900
aF9.55673
aF9.55673
aF9.55673
aF9.55673
aF0.0
aF0.0
aI0
aa(lp543
I1468381200
aF9.55673
aF9.55673
aF9.55673
aF9.55673
aF0.0
aF0.0
aI0
aa(lp544
I1468381500
aF9.55673
aF9.55673
aF9.55673
aF9.55673
aF0.0
aF0.0
aI0
aa(lp545
I1468381800
aF9.55673
aF9.55673
aF9.54319
aF9.54319
aF9.54319
aF18.0
aI1
aa(lp546
I1468382100
aF9.54319
aF9.54319
aF9.54314
aF9.54314
aF9.54314
aF2.833
aI1
aa(lp547
I1468382400
aF9.54201
aF9.54201
aF9.54201
aF9.54201
aF9.54201
aF29.608
aI1
aa(lp548
I1468382700
aF9.54201
aF9.54201
aF9.54201
aF9.54201
aF0.0
aF0.0
aI0
aa(lp549
I1468383000
aF9.54201
aF9.54201
aF9.5022
aF9.5022
aF9.52748
aF172.6578
aI6
aa(lp550
I1468383300
aF9.5022
aF9.5022
aF9.5022
aF9.5022
aF0.0
aF0.0
aI0
aa(lp551
I1468383600
aF9.5022
aF9.5022
aF9.5022
aF9.5022
aF0.0
aF0.0
aI0
aa(lp552
I1468383900
aF9.5022
aF9.5165
aF9.5022
aF9.5165
aF9.51624
aF162.20227891
aI3
aa(lp553
I1468384200
aF9.5256
aF9.5256
aF9.5256
aF9.5256
aF9.5256
aF0.6319
aI1
aa(lp554
I1468384500
aF9.5256
aF9.5256
aF9.5256
aF9.5256
aF0.0
aF0.0
aI0
aa(lp555
I1468384800
aF9.5256
aF9.5256
aF9.5256
aF9.5256
aF0.0
aF0.0
aI0
aa(lp556
I1468385100
aF9.5256
aF9.5256
aF9.5256
aF9.5256
aF0.0
aF0.0
aI0
aa(lp557
I1468385400
aF9.5256
aF9.5256
aF9.5256
aF9.5256
aF0.0
aF0.0
aI0
aa(lp558
I1468385700
aF9.5256
aF9.5256
aF9.5256
aF9.5256
aF0.0
aF0.0
aI0
aa(lp559
I1468386000
aF9.5256
aF9.5256
aF9.5256
aF9.5256
aF0.0
aF0.0
aI0
aa(lp560
I1468386300
aF9.5256
aF9.5256
aF9.5256
aF9.5256
aF0.0
aF0.0
aI0
aa(lp561
I1468386600
aF9.5256
aF9.5256
aF9.5256
aF9.5256
aF0.0
aF0.0
aI0
aa(lp562
I1468386900
aF9.5256
aF9.5256
aF9.5256
aF9.5256
aF0.0
aF0.0
aI0
aa(lp563
I1468387200
aF9.541
aF9.541
aF9.53
aF9.53
aF9.54082
aF321.0
aI6
aa(lp564
I1468387500
aF9.52569
aF9.52569
aF9.5022
aF9.5022
aF9.51857
aF23.49848638
aI9
aa(lp565
I1468387800
aF9.5022
aF9.50229
aF9.5022
aF9.50229
aF9.5022
aF59.55130097
aI10
aa(lp566
I1468388100
aF9.50238
aF9.50256
aF9.5022
aF9.5022
aF9.5022
aF323.64431147
aI7
aa(lp567
I1468388400
aF9.50229
aF9.50229
aF9.5022
aF9.5022
aF9.5022
aF152.54
aI5
aa(lp568
I1468388700
aF9.5022
aF9.50229
aF9.5022
aF9.5022
aF9.5022
aF44.2278
aI4
aa(lp569
I1468389000
aF9.5022
aF9.5022
aF9.5022
aF9.5022
aF9.5022
aF14.51498451
aI4
aa(lp570
I1468389300
aF9.5022
aF9.5022
aF9.5022
aF9.5022
aF0.0
aF0.0
aI0
aa(lp571
I1468389600
aF9.52068
aF9.53093
aF9.52068
aF9.53093
aF9.52897
aF1.24839873
aI2
aa(lp572
I1468389900
aF9.53093
aF9.54
aF9.5217
aF9.5217
aF9.52387
aF33.99031127
aI3
aa(lp573
I1468390200
aF9.5217
aF9.5217
aF9.5217
aF9.5217
aF0.0
aF0.0
aI0
aa(lp574
I1468390500
aF9.522
aF9.5539
aF9.522
aF9.5539
aF9.55316
aF212.50600788
aI5
aa(lp575
I1468390800
aF9.5539
aF9.5539
aF9.5539
aF9.5539
aF0.0
aF0.0
aI0
aa(lp576
I1468391100
aF9.5539
aF9.55408
aF9.5539
aF9.55408
aF9.55408
aF47.41903738
aI3
aa(lp577
I1468391400
aF9.55408
aF9.55408
aF9.55408
aF9.55408
aF0.0
aF0.0
aI0
aa(lp578
I1468391700
aF9.53
aF9.53
aF9.53
aF9.53
aF9.53
aF10.42844702
aI3
aa(lp579
I1468392000
aF9.53
aF9.54792
aF9.53
aF9.54791
aF9.54614
aF116.30511938
aI6
aa(lp580
I1468392300
aF9.54791
aF9.54791
aF9.53
aF9.53
aF9.53
aF0.13556
aI1
aa(lp581
I1468392600
aF9.53
aF9.53
aF9.53
aF9.53
aF0.0
aF0.0
aI0
aa(lp582
I1468392900
aF9.53
aF9.54415
aF9.53
aF9.54415
aF9.54415
aF3.0
aI1
aa(lp583
I1468393200
aF9.53
aF9.53
aF9.48
aF9.48121
aF9.5073
aF1497.3732817
aI16
aa(lp584
I1468393500
aF9.48121
aF9.54316
aF9.48121
aF9.50966
aF9.53901
aF11.95624894
aI6
aa(lp585
I1468393800
aF9.52368
aF9.52368
aF9.48001
aF9.50433
aF9.50874
aF531.0760359
aI6
aa(lp586
I1468394100
aF9.50433
aF9.50433
aF9.50433
aF9.50433
aF0.0
aF0.0
aI0
aa(lp587
I1468394400
aF9.50433
aF9.56067
aF9.49102
aF9.56067
aF9.52059
aF234.0
aI5
aa(lp588
I1468394700
aF9.56067
aF9.56067
aF9.50003
aF9.50003
aF9.52662
aF20.9938249
aI4
aa(lp589
I1468395000
aF9.5556
aF9.56867
aF9.5556
aF9.56867
aF9.56132
aF2.28274
aI2
aa(lp590
I1468395300
aF9.56052
aF9.56052
aF9.56052
aF9.56052
aF9.56052
aF1.0
aI1
aa(lp591
I1468395600
aF9.56052
aF9.56052
aF9.56052
aF9.56052
aF0.0
aF0.0
aI0
aa(lp592
I1468395900
aF9.56052
aF9.56052
aF9.56052
aF9.56052
aF0.0
aF0.0
aI0
aa(lp593
I1468396200
aF9.56052
aF9.56052
aF9.56052
aF9.56052
aF0.0
aF0.0
aI0
aa(lp594
I1468396500
aF9.56052
aF9.56052
aF9.56052
aF9.56052
aF0.0
aF0.0
aI0
aa(lp595
I1468396800
aF9.56052
aF9.56052
aF9.51
aF9.51
aF9.51
aF3.01113
aI1
aa(lp596
I1468397100
aF9.51
aF9.51
aF9.51
aF9.51
aF0.0
aF0.0
aI0
aa(lp597
I1468397400
aF9.51
aF9.548
aF9.51
aF9.51
aF9.52232
aF142.92163
aI5
aa(lp598
I1468397700
aF9.52
aF9.52
aF9.51
aF9.51
aF9.51083
aF6.0
aI2
aa(lp599
I1468398000
aF9.51
aF9.51
aF9.51
aF9.51
aF0.0
aF0.0
aI0
aa(lp600
I1468398300
aF9.51
aF9.51
aF9.51
aF9.51
aF0.0
aF0.0
aI0
aa(lp601
I1468398600
aF9.51
aF9.51
aF9.51
aF9.51
aF9.51
aF3.56269
aI7
aa(lp602
I1468398900
aF9.51
aF9.51
aF9.48
aF9.48
aF9.48914
aF195.08285679
aI6
aa(lp603
I1468399200
aF9.48
aF9.48
aF9.47
aF9.47007
aF9.47002
aF168.0
aI4
aa(lp604
I1468399500
aF9.475
aF9.49738
aF9.46
aF9.46
aF9.47106
aF89.68307809
aI8
aa(lp605
I1468399800
aF9.46
aF9.46
aF9.45902
aF9.45957
aF9.4596
aF17.55722462
aI5
aa(lp606
I1468400100
aF9.45957
aF9.47
aF9.45957
aF9.47
aF9.45991
aF61.4267
aI5
aa(lp607
I1468400400
aF9.47
aF9.50071
aF9.47
aF9.5
aF9.49928
aF54.99377538
aI8
aa(lp608
I1468400700
aF9.5
aF9.5
aF9.459
aF9.459
aF9.459
aF55.94313
aI2
aa(lp609
I1468401000
aF9.459
aF9.46
aF9.459
aF9.46
aF9.46
aF2.0
aI1
aa(lp610
I1468401300
aF9.46
aF9.47033
aF9.46
aF9.47033
aF9.47033
aF1.14885
aI1
aa(lp611
I1468401600
aF9.46933
aF9.48
aF9.468
aF9.48
aF9.46909
aF144.02825
aI4
aa(lp612
I1468401900
aF9.48
aF9.49111
aF9.48
aF9.49111
aF9.49111
aF42.14470172
aI1
aa(lp613
I1468402200
aF9.49111
aF9.49111
aF9.48
aF9.48
aF9.48
aF2.97175
aI1
aa(lp614
I1468402500
aF9.48
aF9.48
aF9.48
aF9.48
aF0.0
aF0.0
aI0
aa(lp615
I1468402800
aF9.48
aF9.49967
aF9.48
aF9.495
aF9.499
aF36.84596
aI3
aa(lp616
I1468403100
aF9.495
aF9.52518
aF9.493
aF9.52518
aF9.50483
aF100.0
aI3
aa(lp617
I1468403400
aF9.52518
aF9.52518
aF9.52518
aF9.52518
aF0.0
aF0.0
aI0
aa(lp618
I1468403700
aF9.52084
aF9.52084
aF9.482
aF9.482
aF9.51975
aF71.4795731
aI3
aa(lp619
I1468404000
aF9.482
aF9.482
aF9.482
aF9.482
aF9.482
aF0.0005
aI1
aa(lp620
I1468404300
aF9.482
aF9.485
aF9.47203
aF9.47203
aF9.47886
aF35.0
aI5
aa(lp621
I1468404600
aF9.47203
aF9.47203
aF9.47203
aF9.47203
aF0.0
aF0.0
aI0
aa(lp622
I1468404900
aF9.48094
aF9.48094
aF9.47407
aF9.47407
aF9.47682
aF15.80191
aI3
aa(lp623
I1468405200
aF9.47407
aF9.49
aF9.47407
aF9.49
aF9.49
aF0.9952
aI1
aa(lp624
I1468405500
aF9.47607
aF9.47607
aF9.47607
aF9.47607
aF9.47607
aF15.0
aI2
aa(lp625
I1468405800
aF9.47607
aF9.49
aF9.47607
aF9.49
aF9.49
aF17.5092
aI2
aa(lp626
I1468406100
aF9.53108
aF9.53108
aF9.53108
aF9.53108
aF9.53108
aF10.01001001
aI1
aa(lp627
I1468406400
aF9.53108
aF9.53108
aF9.53108
aF9.53108
aF0.0
aF0.0
aI0
aa(lp628
I1468406700
aF9.53108
aF9.53108
aF9.5
aF9.5
aF9.5
aF5.264
aI2
aa(lp629
I1468407000
aF9.5015
aF9.53208
aF9.5015
aF9.53208
aF9.52142
aF15.35074
aI3
aa(lp630
I1468407300
aF9.54
aF9.6181
aF9.54
aF9.54312
aF9.57453
aF523.20761676
aI18
aa(lp631
I1468407600
aF9.54312
aF9.66661
aF9.54312
aF9.57765
aF9.64374
aF1922.22675353
aI52
aa(lp632
I1468407900
aF9.59399
aF9.59399
aF9.54851
aF9.54851
aF9.58624
aF36.15383
aI4
aa(lp633
I1468408200
aF9.54801
aF9.54801
aF9.54801
aF9.54801
aF9.54801
aF0.86647
aI1
aa(lp634
I1468408500
aF9.54801
aF9.54801
aF9.54801
aF9.54801
aF0.0
aF0.0
aI0
aa(lp635
I1468408800
aF9.54801
aF9.54801
aF9.54801
aF9.54801
aF0.0
aF0.0
aI0
aa(lp636
I1468409100
aF9.54801
aF9.54801
aF9.54801
aF9.54801
aF0.0
aF0.0
aI0
aa(lp637
I1468409400
aF9.54801
aF9.54801
aF9.54801
aF9.54801
aF0.0
aF0.0
aI0
aa(lp638
I1468409700
aF9.539
aF9.539
aF9.539
aF9.539
aF9.539
aF59.6758
aI2
aa(lp639
I1468410000
aF9.539
aF9.549
aF9.539
aF9.549
aF9.54469
aF251.7437
aI12
aa(lp640
I1468410300
aF9.549
aF9.549
aF9.549
aF9.549
aF9.549
aF24.11299
aI2
aa(lp641
I1468410600
aF9.549
aF9.549
aF9.54203
aF9.54203
aF9.54203
aF26.4993632
aI2
aa(lp642
I1468410900
aF9.54203
aF9.548
aF9.53814
aF9.548
aF9.54029
aF65.81437934
aI3
aa(lp643
I1468411200
aF9.548
aF9.548
aF9.548
aF9.548
aF0.0
aF0.0
aI0
aa(lp644
I1468411500
aF9.548
aF9.55
aF9.548
aF9.55
aF9.55
aF5.0709
aI1
aa(lp645
I1468411800
aF9.5361
aF9.55
aF9.5361
aF9.55
aF9.53963
aF187.9939791
aI5
aa(lp646
I1468412100
aF9.55
aF9.55
aF9.55
aF9.55
aF9.55
aF59.1139
aI1
aa(lp647
I1468412400
aF9.55
aF9.55
aF9.55
aF9.55
aF9.55
aF30.04705
aI2
aa(lp648
I1468412700
aF9.55
aF9.55
aF9.55
aF9.55
aF0.0
aF0.0
aI0
aa(lp649
I1468413000
aF9.55
aF9.56899
aF9.55
aF9.56899
aF9.56899
aF0.11
aI1
aa(lp650
I1468413300
aF9.51742
aF9.54096
aF9.51742
aF9.54096
aF9.54079
aF88.40751
aI5
aa(lp651
I1468413600
aF9.54096
aF9.55799
aF9.54096
aF9.55799
aF9.55799
aF15.486673
aI1
aa(lp652
I1468413900
aF9.55799
aF9.55799
aF9.55799
aF9.55799
aF9.55799
aF62.8274689
aI2
aa(lp653
I1468414200
aF9.55799
aF9.55799
aF9.551
aF9.551
aF9.55508
aF19.9999981
aI3
aa(lp654
I1468414500
aF9.57
aF9.57
aF9.5511
aF9.5511
aF9.55742
aF1.3444
aI2
aa(lp655
I1468414800
aF9.5525
aF9.55603
aF9.5525
aF9.55603
aF9.55288
aF20.15774
aI2
aa(lp656
I1468415100
aF9.57
aF9.57901
aF9.55
aF9.55
aF9.56435
aF777.43864306
aI12
aa(lp657
I1468415400
aF9.55
aF9.55
aF9.53406
aF9.53406
aF9.54701
aF55.7404
aI5
aa(lp658
I1468415700
aF9.549
aF9.549
aF9.52234
aF9.52234
aF9.54638
aF101.06872
aI5
aa(lp659
I1468416000
aF9.52234
aF9.52234
aF9.52234
aF9.52234
aF0.0
aF0.0
aI0
aa(lp660
I1468416300
aF9.52234
aF9.52234
aF9.52234
aF9.52234
aF0.0
aF0.0
aI0
aa(lp661
I1468416600
aF9.52234
aF9.57879
aF9.51
aF9.51
aF9.52564
aF99.97529105
aI6
aa(lp662
I1468416900
aF9.51
aF9.51
aF9.51
aF9.51
aF0.0
aF0.0
aI0
aa(lp663
I1468417200
aF9.51
aF9.51
aF9.5
aF9.50009
aF9.50006
aF46.98747224
aI6
aa(lp664
I1468417500
aF9.50009
aF9.50009
aF9.5
aF9.50009
aF9.50004
aF238.20200243
aI13
aa(lp665
I1468417800
aF9.50009
aF9.50009
aF9.50009
aF9.50009
aF9.50009
aF82.31851264
aI14
aa(lp666
I1468418100
aF9.50009
aF9.50009
aF9.50009
aF9.50009
aF0.0
aF0.0
aI0
aa(lp667
I1468418400
aF9.50009
aF9.50009
aF9.50009
aF9.50009
aF0.0
aF0.0
aI0
aa(lp668
I1468418700
aF9.50009
aF9.50009
aF9.50009
aF9.50009
aF0.0
aF0.0
aI0
aa(lp669
I1468419000
aF9.57891
aF9.57891
aF9.53652
aF9.53652
aF9.55455
aF4.7
aI2
aa(lp670
I1468419300
aF9.53652
aF9.56886
aF9.53652
aF9.56886
aF9.56886
aF20.0
aI1
aa(lp671
I1468419600
aF9.5789
aF9.57891
aF9.51437
aF9.51437
aF9.55739
aF30.012
aI4
aa(lp672
I1468419900
aF9.57
aF9.57
aF9.57
aF9.57
aF9.57
aF0.0955956
aI1
aa(lp673
I1468420200
aF9.57
aF9.57
aF9.511
aF9.521
aF9.5154
aF2.579992
aI2
aa(lp674
I1468420500
aF9.521
aF9.521
aF9.521
aF9.521
aF0.0
aF0.0
aI0
aa(lp675
I1468420800
aF9.521
aF9.521
aF9.521
aF9.521
aF0.0
aF0.0
aI0
aa(lp676
I1468421100
aF9.521
aF9.521
aF9.521
aF9.521
aF0.0
aF0.0
aI0
aa(lp677
I1468421400
aF9.521
aF9.521
aF9.521
aF9.521
aF0.0
aF0.0
aI0
aa(lp678
I1468421700
aF9.521
aF9.57891
aF9.521
aF9.57891
aF9.57888
aF2.83088114
aI3
aa(lp679
I1468422000
aF9.57891
aF9.57891
aF9.50111
aF9.50111
aF9.51026
aF152.00858
aI8
aa(lp680
I1468422300
aF9.50111
aF9.57809
aF9.50111
aF9.57809
aF9.57809
aF1.04404949
aI1
aa(lp681
I1468422600
aF9.57809
aF9.57809
aF9.53201
aF9.53201
aF9.53201
aF0.0125
aI1
aa(lp682
I1468422900
aF9.53201
aF9.53201
aF9.53201
aF9.53201
aF0.0
aF0.0
aI0
aa(lp683
I1468423200
aF9.53201
aF9.53201
aF9.53201
aF9.53201
aF0.0
aF0.0
aI0
aa(lp684
I1468423500
aF9.53201
aF9.53201
aF9.53201
aF9.53201
aF0.0
aF0.0
aI0
aa(lp685
I1468423800
aF9.5002
aF9.5002
aF9.5002
aF9.5002
aF9.5002
aF16.0
aI1
aa(lp686
I1468424100
aF9.53
aF9.53
aF9.50009
aF9.50009
aF9.52276
aF39.578
aI2
aa(lp687
I1468424400
aF9.50009
aF9.53
aF9.48
aF9.48
aF9.50008
aF467.08224853
aI15
aa(lp688
I1468424700
aF9.52899
aF9.52899
aF9.52899
aF9.52899
aF9.52899
aF32.30954516
aI2
aa(lp689
I1468425000
aF9.52899
aF9.52899
aF9.47501
aF9.47501
aF9.51892
aF83.04079416
aI5
aa(lp690
I1468425300
aF9.529
aF9.529
aF9.5001
aF9.5001
aF9.52697
aF16.12801
aI2
aa(lp691
I1468425600
aF9.5001
aF9.5001
aF9.5001
aF9.5001
aF0.0
aF0.0
aI0
aa(lp692
I1468425900
aF9.5001
aF9.5001
aF9.5001
aF9.5001
aF0.0
aF0.0
aI0
aa(lp693
I1468426200
aF9.5001
aF9.5001
aF9.5001
aF9.5001
aF0.0
aF0.0
aI0
aa(lp694
I1468426500
aF9.5001
aF9.5001
aF9.5001
aF9.5001
aF0.0
aF0.0
aI0
aa(lp695
I1468426800
aF9.5001
aF9.5001
aF9.5001
aF9.5001
aF0.0
aF0.0
aI0
aa(lp696
I1468427100
aF9.5001
aF9.53
aF9.5001
aF9.53
aF9.53
aF5.54001307
aI1
aa(lp697
I1468427400
aF9.53
aF9.53
aF9.53
aF9.53
aF0.0
aF0.0
aI0
aa(lp698
I1468427700
aF9.54453
aF9.56
aF9.54453
aF9.56
aF9.55
aF4.96991221
aI2
aa(lp699
I1468428000
aF9.536
aF9.536
aF9.49452
aF9.49452
aF9.53399
aF60.34437
aI7
aa(lp700
I1468428300
aF9.475
aF9.53508
aF9.459
aF9.53508
aF9.46282
aF516.5710878
aI13
aa(lp701
I1468428600
aF9.53508
aF9.53508
aF9.50817
aF9.50817
aF9.50817
aF0.1742
aI1
aa(lp702
I1468428900
aF9.50817
aF9.51997
aF9.50817
aF9.51997
aF9.51907
aF250.0
aI2
aa(lp703
I1468429200
aF9.51997
aF9.51997
aF9.50538
aF9.51595
aF9.51541
aF14.74904948
aI2
aa(lp704
I1468429500
aF9.51595
aF9.51595
aF9.4643
aF9.4643
aF9.4643
aF10.0
aI2
aa(lp705
I1468429800
aF9.459
aF9.459
aF9.459
aF9.459
aF9.459
aF47.0680014
aI3
aa(lp706
I1468430100
aF9.459
aF9.48661
aF9.452
aF9.48661
aF9.46233
aF702.03656351
aI14
aa(lp707
I1468430400
aF9.48661
aF9.48761
aF9.48661
aF9.48761
aF9.48667
aF100.0
aI2
aa(lp708
I1468430700
aF9.48761
aF9.48761
aF9.46661
aF9.46661
aF9.47028
aF32.0
aI3
aa(lp709
I1468431000
aF9.49053
aF9.5001
aF9.46661
aF9.46661
aF9.47657
aF30.51356834
aI7
aa(lp710
I1468431300
aF9.46661
aF9.46661
aF9.46661
aF9.46661
aF0.0
aF0.0
aI0
aa(lp711
I1468431600
aF9.46661
aF9.46661
aF9.4643
aF9.4643
aF9.4643
aF1.05538
aI1
aa(lp712
I1468431900
aF9.4643
aF9.46556
aF9.4643
aF9.46556
aF9.46556
aF0.0350649
aI1
aa(lp713
I1468432200
aF9.46556
aF9.50751
aF9.46556
aF9.50751
aF9.50751
aF4.6953
aI2
aa(lp714
I1468432500
aF9.50751
aF9.50751
aF9.50751
aF9.50751
aF9.50751
aF115.3047
aI3
aa(lp715
I1468432800
aF9.50751
aF9.50751
aF9.50751
aF9.50751
aF0.0
aF0.0
aI0
aa(lp716
I1468433100
aF9.46556
aF9.47
aF9.46556
aF9.47
aF9.46963
aF1.4508093
aI2
aa(lp717
I1468433400
aF9.47
aF9.47
aF9.47
aF9.47
aF0.0
aF0.0
aI0
aa(lp718
I1468433700
aF9.47
aF9.47
aF9.4308
aF9.4308
aF9.46035
aF1555.92387145
aI24
aa(lp719
I1468434000
aF9.45764
aF9.52098
aF9.43422
aF9.46
aF9.44579
aF215.1375842
aI11
aa(lp720
I1468434300
aF9.46
aF9.46
aF9.46
aF9.46
aF0.0
aF0.0
aI0
aa(lp721
I1468434600
aF9.46
aF9.46002
aF9.46
aF9.46001
aF9.46001
aF135.5462335
aI2
aa(lp722
I1468434900
aF9.46001
aF9.46001
aF9.44164
aF9.44164
aF9.44164
aF32.67235
aI2
aa(lp723
I1468435200
aF9.46385
aF9.46385
aF9.43717
aF9.43717
aF9.46358
aF5.049
aI2
aa(lp724
I1468435500
aF9.43717
aF9.43717
aF9.43717
aF9.43717
aF0.0
aF0.0
aI0
aa(lp725
I1468435800
aF9.43717
aF9.49218
aF9.436
aF9.436
aF9.43715
aF375.77797785
aI16
aassS'error'
p726
(lp727
s.